target datalayout = "e-m:e-p270:32:32-p271:32:32-p272:64:64-i64:64-i128:128-f80:128-n8:16:32:64-S128"
target triple = "x86_64-pc-linux-gnu"

%struct._zval_struct = type { %union._zend_value, %union.anon.2, %union.anon.5 }
%union._zend_value = type { i64 }
%union.anon.2 = type { i32 }
%union.anon.5 = type { i32 }
%struct._zend_refcounted_h = type { i32, %union.anon.6 }
%union.anon.6 = type { i32 }
%struct._spl_filesystem_object = type { ptr, ptr, ptr, ptr, ptr, i32, i64, ptr, ptr, %union.anon, %struct._zend_object }
%union.anon = type { %struct.anon }
%struct.anon = type { ptr, ptr, i32, ptr, ptr, ptr, %struct._php_stream_dirent }
%struct._php_stream_dirent = type { [256 x i8], i8 }
%struct._zend_object = type { %struct._zend_refcounted_h, i32, ptr, ptr, ptr, [1 x %struct._zval_struct] }
%struct.anon.0 = type { ptr, ptr, ptr, ptr, %struct._zval_struct, ptr, i64, i64, i64, %struct._zval_struct, ptr, i8, i8, i32 }
%struct._zend_refcounted = type { %struct._zend_refcounted_h }

; Function Attrs: nounwind uwtable
define internal zeroext i1 @is_line_empty(ptr noundef %0) #0 {
  %2 = alloca ptr, align 8
  %3 = alloca ptr, align 8
  %4 = alloca i64, align 8
  store ptr %0, ptr %2, align 8
  %5 = load ptr, ptr %2, align 8
  %6 = getelementptr inbounds %struct._spl_filesystem_object, ptr %5, i32 0, i32 9
  %7 = getelementptr inbounds %struct.anon.0, ptr %6, i32 0, i32 5
  %8 = load ptr, ptr %7, align 8
  store ptr %8, ptr %3, align 8
  %9 = load ptr, ptr %2, align 8
  %10 = getelementptr inbounds %struct._spl_filesystem_object, ptr %9, i32 0, i32 9
  %11 = getelementptr inbounds %struct.anon.0, ptr %10, i32 0, i32 6
  %12 = load i64, ptr %11, align 8
  store i64 %12, ptr %4, align 8
  %13 = load i64, ptr %4, align 8
  %14 = icmp eq i64 %13, 0
  br i1 %14, label %61, label %15

15:                                               ; preds = %1
  %16 = load ptr, ptr %2, align 8
  %17 = getelementptr inbounds %struct._spl_filesystem_object, ptr %16, i32 0, i32 6
  %18 = load i64, ptr %17, align 8
  %19 = and i64 %18, 8
  %20 = icmp ne i64 %19, 0
  br i1 %20, label %21, label %22

21:                                               ; preds = %15
  br i1 true, label %23, label %59

22:                                               ; preds = %15
  br i1 false, label %23, label %59

23:                                               ; preds = %22, %21
  %24 = load ptr, ptr %2, align 8
  %25 = getelementptr inbounds %struct._spl_filesystem_object, ptr %24, i32 0, i32 6
  %26 = load i64, ptr %25, align 8
  %27 = and i64 %26, 1
  %28 = icmp ne i64 %27, 0
  br i1 %28, label %29, label %30

29:                                               ; preds = %23
  br i1 true, label %31, label %59

30:                                               ; preds = %23
  br i1 false, label %31, label %59

31:                                               ; preds = %30, %29
  %32 = load i64, ptr %4, align 8
  %33 = icmp eq i64 %32, 1
  br i1 %33, label %34, label %40

34:                                               ; preds = %31
  %35 = load ptr, ptr %3, align 8
  %36 = getelementptr inbounds i8, ptr %35, i64 0
  %37 = load i8, ptr %36, align 1
  %38 = sext i8 %37 to i32
  %39 = icmp eq i32 %38, 10
  br i1 %39, label %57, label %40

40:                                               ; preds = %34, %31
  %41 = load i64, ptr %4, align 8
  %42 = icmp eq i64 %41, 2
  br i1 %42, label %43, label %55

43:                                               ; preds = %40
  %44 = load ptr, ptr %3, align 8
  %45 = getelementptr inbounds i8, ptr %44, i64 0
  %46 = load i8, ptr %45, align 1
  %47 = sext i8 %46 to i32
  %48 = icmp eq i32 %47, 13
  br i1 %48, label %49, label %55

49:                                               ; preds = %43
  %50 = load ptr, ptr %3, align 8
  %51 = getelementptr inbounds i8, ptr %50, i64 1
  %52 = load i8, ptr %51, align 1
  %53 = sext i8 %52 to i32
  %54 = icmp eq i32 %53, 10
  br label %55

55:                                               ; preds = %49, %43, %40
  %56 = phi i1 [ false, %43 ], [ false, %40 ], [ %54, %49 ]
  br label %57

57:                                               ; preds = %55, %34
  %58 = phi i1 [ true, %34 ], [ %56, %55 ]
  br label %59

59:                                               ; preds = %57, %30, %29, %22, %21
  %60 = phi i1 [ false, %30 ], [ false, %29 ], [ false, %22 ], [ false, %21 ], [ %58, %57 ]
  br label %61

61:                                               ; preds = %59, %1
  %62 = phi i1 [ true, %1 ], [ %60, %59 ]
  ret i1 %62
}

; Function Attrs: nounwind uwtable
define internal i32 @spl_filesystem_file_read(ptr noundef %0, i1 noundef zeroext %1, i1 noundef zeroext %2) #0 {
  %4 = alloca ptr, align 8
  %5 = alloca i8, align 1
  %6 = alloca i8, align 1
  %7 = alloca i64, align 8
  store ptr %0, ptr %4, align 8
  %8 = zext i1 %1 to i8
  store i8 %8, ptr %5, align 1
  %9 = zext i1 %2 to i8
  store i8 %9, ptr %6, align 1
  %10 = load ptr, ptr %4, align 8
  %11 = getelementptr inbounds %struct._spl_filesystem_object, ptr %10, i32 0, i32 9
  %12 = getelementptr inbounds %struct.anon.0, ptr %11, i32 0, i32 5
  %13 = load ptr, ptr %12, align 8
  %14 = icmp ne ptr %13, null
  %15 = select i1 %14, i32 1, i32 0
  %16 = sext i32 %15 to i64
  store i64 %16, ptr %7, align 8
  %17 = load ptr, ptr %4, align 8
  %18 = load i8, ptr %5, align 1
  %19 = trunc i8 %18 to i1
  %20 = load i64, ptr %7, align 8
  %21 = load i8, ptr %6, align 1
  %22 = trunc i8 %21 to i1
  %23 = call i32 @spl_filesystem_file_read_ex(ptr noundef %17, i1 noundef zeroext %19, i64 noundef %20, i1 noundef zeroext %22)
  ret i32 %23
}

; Function Attrs: nounwind uwtable
define internal i32 @spl_filesystem_file_read_csv(ptr noundef %0, i8 noundef signext %1, i8 noundef signext %2, i32 noundef %3, ptr noundef %4) #0 {
  %6 = alloca ptr, align 8
  %7 = alloca ptr, align 8
  %8 = alloca i32, align 4
  %9 = alloca ptr, align 8
  %10 = alloca i8, align 1
  %11 = alloca i8, align 1
  %12 = alloca i32, align 4
  %13 = alloca ptr, align 8
  %14 = alloca i32, align 4
  %15 = alloca i64, align 8
  %16 = alloca ptr, align 8
  %17 = alloca ptr, align 8
  %18 = alloca ptr, align 8
  %19 = alloca ptr, align 8
  %20 = alloca ptr, align 8
  %21 = alloca ptr, align 8
  %22 = alloca ptr, align 8
  %23 = alloca i32, align 4
  store ptr %0, ptr %9, align 8
  store i8 %1, ptr %10, align 1
  store i8 %2, ptr %11, align 1
  store i32 %3, ptr %12, align 4
  store ptr %4, ptr %13, align 8
  br label %24

24:                                               ; preds = %43, %5
  %25 = load ptr, ptr %9, align 8
  %26 = call i32 @spl_filesystem_file_read(ptr noundef %25, i1 noundef zeroext true, i1 noundef zeroext true)
  store i32 %26, ptr %14, align 4
  %27 = load i32, ptr %14, align 4
  %28 = icmp ne i32 %27, 0
  br i1 %28, label %29, label %31

29:                                               ; preds = %24
  %30 = load i32, ptr %14, align 4
  store i32 %30, ptr %8, align 4
  br label %135

31:                                               ; preds = %24
  br label %32

32:                                               ; preds = %31
  %33 = load ptr, ptr %9, align 8
  %34 = call zeroext i1 @is_line_empty(ptr noundef %33)
  br i1 %34, label %35, label %43

35:                                               ; preds = %32
  %36 = load ptr, ptr %9, align 8
  %37 = getelementptr inbounds %struct._spl_filesystem_object, ptr %36, i32 0, i32 6
  %38 = load i64, ptr %37, align 8
  %39 = and i64 %38, 4
  %40 = icmp ne i64 %39, 0
  %41 = select i1 %40, i32 1, i32 0
  %42 = icmp ne i32 %41, 0
  br label %43

43:                                               ; preds = %35, %32
  %44 = phi i1 [ false, %32 ], [ %42, %35 ]
  br i1 %44, label %24, label %45

45:                                               ; preds = %43
  %46 = load ptr, ptr %9, align 8
  %47 = getelementptr inbounds %struct._spl_filesystem_object, ptr %46, i32 0, i32 9
  %48 = getelementptr inbounds %struct.anon.0, ptr %47, i32 0, i32 6
  %49 = load i64, ptr %48, align 8
  store i64 %49, ptr %15, align 8
  %50 = load ptr, ptr %9, align 8
  %51 = getelementptr inbounds %struct._spl_filesystem_object, ptr %50, i32 0, i32 9
  %52 = getelementptr inbounds %struct.anon.0, ptr %51, i32 0, i32 5
  %53 = load ptr, ptr %52, align 8
  %54 = load i64, ptr %15, align 8
  %55 = call noalias ptr @_estrndup(ptr noundef %53, i64 noundef %54)
  store ptr %55, ptr %16, align 8
  %56 = load ptr, ptr %9, align 8
  %57 = getelementptr inbounds %struct._spl_filesystem_object, ptr %56, i32 0, i32 9
  %58 = getelementptr inbounds %struct.anon.0, ptr %57, i32 0, i32 4
  store ptr %58, ptr %6, align 8
  %59 = load ptr, ptr %6, align 8
  %60 = getelementptr inbounds %struct._zval_struct, ptr %59, i32 0, i32 1
  %61 = load i8, ptr %60, align 8
  %62 = zext i8 %61 to i32
  %63 = icmp eq i32 %62, 0
  br i1 %63, label %74, label %64

64:                                               ; preds = %45
  %65 = load ptr, ptr %9, align 8
  %66 = getelementptr inbounds %struct._spl_filesystem_object, ptr %65, i32 0, i32 9
  %67 = getelementptr inbounds %struct.anon.0, ptr %66, i32 0, i32 4
  call void @zval_ptr_dtor(ptr noundef %67)
  br label %68

68:                                               ; preds = %64
  %69 = load ptr, ptr %9, align 8
  %70 = getelementptr inbounds %struct._spl_filesystem_object, ptr %69, i32 0, i32 9
  %71 = getelementptr inbounds %struct.anon.0, ptr %70, i32 0, i32 4
  %72 = getelementptr inbounds %struct._zval_struct, ptr %71, i32 0, i32 1
  store i32 0, ptr %72, align 8
  br label %73

73:                                               ; preds = %68
  br label %74

74:                                               ; preds = %73, %45
  %75 = load ptr, ptr %9, align 8
  %76 = getelementptr inbounds %struct._spl_filesystem_object, ptr %75, i32 0, i32 9
  %77 = getelementptr inbounds %struct.anon.0, ptr %76, i32 0, i32 0
  %78 = load ptr, ptr %77, align 8
  %79 = load i8, ptr %10, align 1
  %80 = load i8, ptr %11, align 1
  %81 = load i32, ptr %12, align 4
  %82 = load i64, ptr %15, align 8
  %83 = load ptr, ptr %16, align 8
  %84 = call ptr @php_fgetcsv(ptr noundef %78, i8 noundef signext %79, i8 noundef signext %80, i32 noundef %81, i64 noundef %82, ptr noundef %83)
  store ptr %84, ptr %17, align 8
  %85 = load ptr, ptr %17, align 8
  %86 = icmp eq ptr %85, null
  br i1 %86, label %87, label %89

87:                                               ; preds = %74
  %88 = call ptr @php_bc_fgetcsv_empty_line()
  store ptr %88, ptr %17, align 8
  br label %89

89:                                               ; preds = %87, %74
  br label %90

90:                                               ; preds = %89
  %91 = load ptr, ptr %17, align 8
  store ptr %91, ptr %18, align 8
  %92 = load ptr, ptr %9, align 8
  %93 = getelementptr inbounds %struct._spl_filesystem_object, ptr %92, i32 0, i32 9
  %94 = getelementptr inbounds %struct.anon.0, ptr %93, i32 0, i32 4
  store ptr %94, ptr %19, align 8
  %95 = load ptr, ptr %18, align 8
  %96 = load ptr, ptr %19, align 8
  %97 = getelementptr inbounds %struct._zval_struct, ptr %96, i32 0, i32 0
  store ptr %95, ptr %97, align 8
  %98 = load ptr, ptr %19, align 8
  %99 = getelementptr inbounds %struct._zval_struct, ptr %98, i32 0, i32 1
  store i32 775, ptr %99, align 8
  br label %100

100:                                              ; preds = %90
  %101 = load ptr, ptr %13, align 8
  %102 = icmp ne ptr %101, null
  br i1 %102, label %103, label %134

103:                                              ; preds = %100
  br label %104

104:                                              ; preds = %103
  %105 = load ptr, ptr %13, align 8
  store ptr %105, ptr %20, align 8
  %106 = load ptr, ptr %9, align 8
  %107 = getelementptr inbounds %struct._spl_filesystem_object, ptr %106, i32 0, i32 9
  %108 = getelementptr inbounds %struct.anon.0, ptr %107, i32 0, i32 4
  store ptr %108, ptr %21, align 8
  %109 = load ptr, ptr %21, align 8
  %110 = getelementptr inbounds %struct._zval_struct, ptr %109, i32 0, i32 0
  %111 = load ptr, ptr %110, align 8
  store ptr %111, ptr %22, align 8
  %112 = load ptr, ptr %21, align 8
  %113 = getelementptr inbounds %struct._zval_struct, ptr %112, i32 0, i32 1
  %114 = load i32, ptr %113, align 8
  store i32 %114, ptr %23, align 4
  br label %115

115:                                              ; preds = %104
  %116 = load ptr, ptr %22, align 8
  %117 = load ptr, ptr %20, align 8
  %118 = getelementptr inbounds %struct._zval_struct, ptr %117, i32 0, i32 0
  store ptr %116, ptr %118, align 8
  %119 = load i32, ptr %23, align 4
  %120 = load ptr, ptr %20, align 8
  %121 = getelementptr inbounds %struct._zval_struct, ptr %120, i32 0, i32 1
  store i32 %119, ptr %121, align 8
  br label %122

122:                                              ; preds = %115
  %123 = load i32, ptr %23, align 4
  %124 = and i32 %123, 65280
  %125 = icmp ne i32 %124, 0
  br i1 %125, label %126, label %132

126:                                              ; preds = %122
  %127 = load ptr, ptr %22, align 8
  %128 = getelementptr inbounds %struct._zend_refcounted, ptr %127, i32 0, i32 0
  store ptr %128, ptr %7, align 8
  %129 = load ptr, ptr %7, align 8
  %130 = load i32, ptr %129, align 4
  %131 = add i32 %130, 1
  store i32 %131, ptr %129, align 4
  br label %132

132:                                              ; preds = %126, %122
  br label %133

133:                                              ; preds = %132
  br label %134

134:                                              ; preds = %133, %100
  store i32 0, ptr %8, align 4
  br label %135

135:                                              ; preds = %134, %29
  %136 = load i32, ptr %8, align 4
  ret i32 %136
}