; Function Attrs: nounwind uwtable
define internal fastcc noundef i32 @spl_filesystem_file_read_csv(ptr noundef %0, i8 noundef signext %1, i8 noundef signext %2, i32 noundef %3, ptr noundef writeonly %4) unnamed_addr #0 {
  %6 = getelementptr inbounds i8, ptr %0, i64 120
  %7 = getelementptr inbounds i8, ptr %0, i64 128
  %8 = getelementptr inbounds i8, ptr %0, i64 48
  %.pre = load ptr, ptr %6, align 8
  %.not.i48 = icmp ne ptr %.pre, null
  %9 = zext i1 %.not.i48 to i64
  %10 = tail call fastcc noundef i32 @spl_filesystem_file_read_ex(ptr noundef nonnull %0, i1 noundef zeroext true, i64 noundef %9, i1 noundef zeroext true), !range !4
  %.not49 = icmp eq i32 %10, 0
  br i1 %.not49, label %.lr.ph, label %.loopexit

.lr.ph:                                           ; preds = %5, %.backedge
  %11 = load ptr, ptr %6, align 8
  %12 = load i64, ptr %7, align 8
  %13 = icmp eq i64 %12, 0
  %.pre45 = load i64, ptr %8, align 8
  br i1 %13, label %is_line_empty.exit.thread42, label %14

14:                                               ; preds = %.lr.ph
  %15 = and i64 %.pre45, 9
  %or.cond.not.i = icmp eq i64 %15, 9
  br i1 %or.cond.not.i, label %16, label %.critedge

16:                                               ; preds = %14
  switch i64 %12, label %.critedge [
    i64 1, label %is_line_empty.exit
    i64 2, label %17
  ]

17:                                               ; preds = %16
  %18 = load i8, ptr %11, align 1
  %19 = icmp eq i8 %18, 13
  br i1 %19, label %20, label %.critedge

20:                                               ; preds = %17
  %21 = getelementptr inbounds i8, ptr %11, i64 1
  br label %is_line_empty.exit

is_line_empty.exit:                               ; preds = %16, %20
  %.sink10.i = phi ptr [ %21, %20 ], [ %11, %16 ]
  %22 = load i8, ptr %.sink10.i, align 1
  %23 = icmp ne i8 %22, 10
  %24 = and i64 %.pre45, 4
  %.not40 = icmp eq i64 %24, 0
  %or.cond = select i1 %23, i1 true, i1 %.not40
  br i1 %or.cond, label %.critedge, label %.backedge

is_line_empty.exit.thread42:                      ; preds = %.lr.ph
  %.old = and i64 %.pre45, 4
  %.not40.old = icmp eq i64 %.old, 0
  br i1 %.not40.old, label %.critedge, label %.backedge

.backedge:                                        ; preds = %is_line_empty.exit.thread42, %is_line_empty.exit
  %.not.i = icmp ne ptr %11, null
  %25 = zext i1 %.not.i to i64
  %26 = tail call fastcc noundef i32 @spl_filesystem_file_read_ex(ptr noundef nonnull %0, i1 noundef zeroext true, i64 noundef %25, i1 noundef zeroext true), !range !4
  %.not = icmp eq i32 %26, 0
  br i1 %.not, label %.lr.ph, label %.loopexit

.critedge:                                        ; preds = %16, %17, %14, %is_line_empty.exit, %is_line_empty.exit.thread42
  %27 = getelementptr inbounds i8, ptr %0, i64 72
  %28 = tail call noalias ptr @_estrndup(ptr noundef %11, i64 noundef %12) #18
  %29 = getelementptr inbounds i8, ptr %0, i64 104
  %30 = getelementptr inbounds i8, ptr %0, i64 112
  %31 = load i8, ptr %30, align 8
  %32 = icmp eq i8 %31, 0
  br i1 %32, label %34, label %33

33:                                               ; preds = %.critedge
  tail call void @zval_ptr_dtor(ptr noundef nonnull %29) #18
  store i32 0, ptr %30, align 8
  br label %34

34:                                               ; preds = %33, %.critedge
  %35 = load ptr, ptr %27, align 8
  %36 = tail call ptr @php_fgetcsv(ptr noundef %35, i8 noundef signext %1, i8 noundef signext %2, i32 noundef %3, i64 noundef %12, ptr noundef %28) #18
  %37 = icmp eq ptr %36, null
  br i1 %37, label %38, label %40

38:                                               ; preds = %34
  %39 = tail call ptr @php_bc_fgetcsv_empty_line() #18
  br label %40

40:                                               ; preds = %34, %38
  %.036 = phi ptr [ %39, %38 ], [ %36, %34 ]
  store ptr %.036, ptr %29, align 8
  store i32 775, ptr %30, align 8
  %.not41 = icmp eq ptr %4, null
  br i1 %.not41, label %.loopexit, label %41

41:                                               ; preds = %40
  store ptr %.036, ptr %4, align 8
  %42 = getelementptr inbounds i8, ptr %4, i64 8
  store i32 775, ptr %42, align 8
  %43 = load i32, ptr %.036, align 4
  %44 = add i32 %43, 1
  store i32 %44, ptr %.036, align 4
  br label %.loopexit

.loopexit:                                        ; preds = %.backedge, %5, %40, %41
  %.0 = phi i32 [ 0, %41 ], [ 0, %40 ], [ -1, %5 ], [ -1, %.backedge ]
  ret i32 %.0
}